target datalayout = "e-m:e-p270:32:32-p271:32:32-p272:64:64-i64:64-i128:128-f80:128-n8:16:32:64-S128"
target triple = "x86_64-pc-linux-gnu"

%struct._zval_struct = type { %union._zend_value, %union.anon, %union.anon.2 }
%union._zend_value = type { i64 }
%union.anon = type { i32 }
%union.anon.2 = type { i32 }

; Function Attrs: nounwind uwtable
define dso_local void @zend_declare_class_constant_bool(ptr noundef %0, ptr noundef %1, i64 noundef %2, i1 noundef zeroext %3) #0 {
  %5 = alloca ptr, align 8
  %6 = alloca ptr, align 8
  %7 = alloca i64, align 8
  %8 = alloca i8, align 1
  %9 = alloca %struct._zval_struct, align 8
  store ptr %0, ptr %5, align 8, !tbaa !66
  store ptr %1, ptr %6, align 8, !tbaa !47
  store i64 %2, ptr %7, align 8, !tbaa !85
  %10 = zext i1 %3 to i8
  store i8 %10, ptr %8, align 1, !tbaa !72
  call void @llvm.lifetime.start.p0(i64 16, ptr %9) #21
  br label %11

11:                                               ; preds = %4
  %12 = load i8, ptr %8, align 1, !tbaa !72, !range !73, !noundef !74
  %13 = trunc i8 %12 to i1
  %14 = select i1 %13, i32 3, i32 2
  %15 = getelementptr inbounds nuw %struct._zval_struct, ptr %9, i32 0, i32 1
  store i32 %14, ptr %15, align 8, !tbaa !44
  br label %16

16:                                               ; preds = %11
  br label %17

17:                                               ; preds = %16
  %18 = load ptr, ptr %5, align 8, !tbaa !66
  %19 = load ptr, ptr %6, align 8, !tbaa !47
  %20 = load i64, ptr %7, align 8, !tbaa !85
  call void @zend_declare_class_constant(ptr noundef %18, ptr noundef %19, i64 noundef %20, ptr noundef %9)
  call void @llvm.lifetime.end.p0(i64 16, ptr %9) #21
  ret void
}